; ModuleID = '23/840.c'
source_filename = "23/840.c"
target datalayout = "e-m:e-p270:32:32-p271:32:32-p272:64:64-i64:64-f80:128-n8:16:32:64-S128"
target triple = "x86_64-pc-linux-gnu"

@.str = private unnamed_addr constant [3 x i8] c"%s\00", align 1
@.str.1 = private unnamed_addr constant [2 x i8] c" \00", align 1

; Function Attrs: noinline nounwind uwtable
define dso_local void @main() #0 {
  %1 = alloca [100 x [100 x i8]], align 16
  %2 = alloca [1000 x i8], align 16
  %3 = alloca i32, align 4
  %4 = alloca i32, align 4
  %5 = alloca i32, align 4
  %6 = alloca i32, align 4
  %7 = alloca i32, align 4
  %8 = alloca i32, align 4
  %9 = alloca i8, align 1
  store i32 0, i32* %5, align 4
  store i32 0, i32* %7, align 4
  store i32 0, i32* %8, align 4
  %10 = getelementptr inbounds [1000 x i8], [1000 x i8]* %2, i64 0, i64 0
  %11 = call i32 (i8*, ...) bitcast (i32 (...)* @gets to i32 (i8*, ...)*)(i8* %10)
  store i32 0, i32* %4, align 4
  br label %12

12:                                               ; preds = %53, %0
  %13 = load i32, i32* %4, align 4
  %14 = icmp slt i32 %13, 100
  br i1 %14, label %15, label %56

15:                                               ; preds = %12
  store i32 0, i32* %6, align 4
  br label %16

16:                                               ; preds = %49, %15
  %17 = load i32, i32* %6, align 4
  %18 = icmp slt i32 %17, 100
  br i1 %18, label %19, label %52

19:                                               ; preds = %16
  %20 = load i32, i32* %5, align 4
  %21 = sext i32 %20 to i64
  %22 = getelementptr inbounds [1000 x i8], [1000 x i8]* %2, i64 0, i64 %21
  %23 = load i8, i8* %22, align 1
  %24 = load i32, i32* %4, align 4
  %25 = sext i32 %24 to i64
  %26 = getelementptr inbounds [100 x [100 x i8]], [100 x [100 x i8]]* %1, i64 0, i64 %25
  %27 = load i32, i32* %6, align 4
  %28 = sext i32 %27 to i64
  %29 = getelementptr inbounds [100 x i8], [100 x i8]* %26, i64 0, i64 %28
  store i8 %23, i8* %29, align 1
  %30 = load i32, i32* %5, align 4
  %31 = add nsw i32 %30, 1
  store i32 %31, i32* %5, align 4
  %32 = load i32, i32* %4, align 4
  %33 = sext i32 %32 to i64
  %34 = getelementptr inbounds [100 x [100 x i8]], [100 x [100 x i8]]* %1, i64 0, i64 %33
  %35 = load i32, i32* %6, align 4
  %36 = sext i32 %35 to i64
  %37 = getelementptr inbounds [100 x i8], [100 x i8]* %34, i64 0, i64 %36
  %38 = load i8, i8* %37, align 1
  %39 = sext i8 %38 to i32
  %40 = icmp eq i32 %39, 32
  br i1 %40, label %41, label %48

41:                                               ; preds = %19
  %42 = load i32, i32* %4, align 4
  %43 = sext i32 %42 to i64
  %44 = getelementptr inbounds [100 x [100 x i8]], [100 x [100 x i8]]* %1, i64 0, i64 %43
  %45 = load i32, i32* %6, align 4
  %46 = sext i32 %45 to i64
  %47 = getelementptr inbounds [100 x i8], [100 x i8]* %44, i64 0, i64 %46
  store i8 0, i8* %47, align 1
  br label %52

48:                                               ; preds = %19
  br label %49

49:                                               ; preds = %48
  %50 = load i32, i32* %6, align 4
  %51 = add nsw i32 %50, 1
  store i32 %51, i32* %6, align 4
  br label %16

52:                                               ; preds = %41, %16
  br label %53

53:                                               ; preds = %52
  %54 = load i32, i32* %4, align 4
  %55 = add nsw i32 %54, 1
  store i32 %55, i32* %4, align 4
  br label %12

56:                                               ; preds = %12
  store i32 0, i32* %4, align 4
  br label %57

57:                                               ; preds = %77, %56
  %58 = load i32, i32* %4, align 4
  %59 = sext i32 %58 to i64
  %60 = getelementptr inbounds [1000 x i8], [1000 x i8]* %2, i64 0, i64 %59
  %61 = load i8, i8* %60, align 1
  store i8 %61, i8* %9, align 1
  %62 = sext i8 %61 to i32
  %63 = icmp ne i32 %62, 0
  br i1 %63, label %64, label %80

64:                                               ; preds = %57
  %65 = load i8, i8* %9, align 1
  %66 = sext i8 %65 to i32
  %67 = icmp eq i32 %66, 32
  br i1 %67, label %68, label %69

68:                                               ; preds = %64
  store i32 0, i32* %8, align 4
  br label %76

69:                                               ; preds = %64
  %70 = load i32, i32* %8, align 4
  %71 = icmp eq i32 %70, 0
  br i1 %71, label %72, label %75

72:                                               ; preds = %69
  store i32 1, i32* %8, align 4
  %73 = load i32, i32* %7, align 4
  %74 = add nsw i32 %73, 1
  store i32 %74, i32* %7, align 4
  br label %75

75:                                               ; preds = %72, %69
  br label %76

76:                                               ; preds = %75, %68
  br label %77

77:                                               ; preds = %76
  %78 = load i32, i32* %4, align 4
  %79 = add nsw i32 %78, 1
  store i32 %79, i32* %4, align 4
  br label %57

80:                                               ; preds = %57
  %81 = load i32, i32* %7, align 4
  %82 = sub nsw i32 %81, 1
  %83 = sext i32 %82 to i64
  %84 = getelementptr inbounds [100 x [100 x i8]], [100 x [100 x i8]]* %1, i64 0, i64 %83
  %85 = getelementptr inbounds [100 x i8], [100 x i8]* %84, i64 0, i64 0
  %86 = call i64 @strlen(i8* %85) #3
  %87 = trunc i64 %86 to i32
  store i32 %87, i32* %3, align 4
  %88 = load i32, i32* %7, align 4
  %89 = sub nsw i32 %88, 1
  %90 = sext i32 %89 to i64
  %91 = getelementptr inbounds [100 x [100 x i8]], [100 x [100 x i8]]* %1, i64 0, i64 %90
  %92 = load i32, i32* %3, align 4
  %93 = sext i32 %92 to i64
  %94 = getelementptr inbounds [100 x i8], [100 x i8]* %91, i64 0, i64 %93
  store i8 0, i8* %94, align 1
  store i32 0, i32* %4, align 4
  br label %95

95:                                               ; preds = %116, %80
  %96 = load i32, i32* %4, align 4
  %97 = load i32, i32* %7, align 4
  %98 = icmp slt i32 %96, %97
  br i1 %98, label %99, label %119

99:                                               ; preds = %95
  %100 = load i32, i32* %7, align 4
  %101 = sub nsw i32 %100, 1
  %102 = load i32, i32* %4, align 4
  %103 = sub nsw i32 %101, %102
  %104 = sext i32 %103 to i64
  %105 = getelementptr inbounds [100 x [100 x i8]], [100 x [100 x i8]]* %1, i64 0, i64 %104
  %106 = getelementptr inbounds [100 x i8], [100 x i8]* %105, i64 0, i64 0
  %107 = call i32 (i8*, ...) @printf(i8* getelementptr inbounds ([3 x i8], [3 x i8]* @.str, i64 0, i64 0), i8* %106)
  %108 = load i32, i32* %7, align 4
  %109 = sub nsw i32 %108, 1
  %110 = load i32, i32* %4, align 4
  %111 = sub nsw i32 %109, %110
  %112 = icmp ne i32 %111, 0
  br i1 %112, label %113, label %115

113:                                              ; preds = %99
  %114 = call i32 (i8*, ...) @printf(i8* getelementptr inbounds ([2 x i8], [2 x i8]* @.str.1, i64 0, i64 0))
  br label %115

115:                                              ; preds = %113, %99
  br label %116

116:                                              ; preds = %115
  %117 = load i32, i32* %4, align 4
  %118 = add nsw i32 %117, 1
  store i32 %118, i32* %4, align 4
  br label %95

119:                                              ; preds = %95
  ret void
}

declare dso_local i32 @gets(...) #1

; Function Attrs: nounwind readonly
declare dso_local i64 @strlen(i8*) #2

declare dso_local i32 @printf(i8*, ...) #1


!llvm.module.flags = !{!0}
!llvm.ident = !{!1}

!0 = !{i32 1, !"wchar_size", i32 4}
!1 = !{!"clang version 10.0.0-4ubuntu1 "}
